target datalayout = "e-m:e-p270:32:32-p271:32:32-p272:64:64-i64:64-i128:128-f80:128-n8:16:32:64-S128"
target triple = "x86_64-pc-linux-gnu"

%"struct.cv::QRCodeEncoder::Params" = type { i32, i32, i32, i32 }
%"class.cv::QRCodeEncoderImpl" = type { %"class.cv::QRCodeEncoder", %"struct.cv::QRCodeEncoder::Params", i32, i32, i32, i32, i32, i32, %"class.std::vector.3", %"class.std::vector.3", %"class.std::vector.3", %"class.std::vector.3", %"class.cv::Mat", %"class.cv::Mat", i8, i8, i8, %"class.std::vector.8", ptr, ptr }
%"class.cv::QRCodeEncoder" = type { ptr }
%"class.std::vector.3" = type { %"struct.std::_Vector_base.4" }
%"struct.std::_Vector_base.4" = type { %"struct.std::_Vector_base<unsigned char, std::allocator<unsigned char>>::_Vector_impl" }
%"struct.std::_Vector_base<unsigned char, std::allocator<unsigned char>>::_Vector_impl" = type { %"struct.std::_Vector_base<unsigned char, std::allocator<unsigned char>>::_Vector_impl_data" }
%"struct.std::_Vector_base<unsigned char, std::allocator<unsigned char>>::_Vector_impl_data" = type { ptr, ptr, ptr }
%"class.cv::Mat" = type { i32, i32, i32, i32, ptr, ptr, ptr, ptr, ptr, ptr, %"struct.cv::MatSize", %"struct.cv::MatStep" }
%"struct.cv::MatSize" = type { ptr }
%"struct.cv::MatStep" = type { ptr, [2 x i64] }
%"class.std::vector.8" = type { %"struct.std::_Vector_base.9" }
%"struct.std::_Vector_base.9" = type { %"struct.std::_Vector_base<cv::Mat, std::allocator<cv::Mat>>::_Vector_impl" }
%"struct.std::_Vector_base<cv::Mat, std::allocator<cv::Mat>>::_Vector_impl" = type { %"struct.std::_Vector_base<cv::Mat, std::allocator<cv::Mat>>::_Vector_impl_data" }
%"struct.std::_Vector_base<cv::Mat, std::allocator<cv::Mat>>::_Vector_impl_data" = type { ptr, ptr, ptr }

; Function Attrs: inlinehint mustprogress nounwind uwtable
define linkonce_odr hidden noundef nonnull align 1 dereferenceable(1) ptr @_ZN2cv3Mat2atIhEERT_ii(ptr noundef nonnull align 8 dereferenceable(96) %0, i32 noundef %1, i32 noundef %2) #5 comdat align 2 {
  %4 = alloca ptr, align 8
  %5 = alloca i32, align 4
  %6 = alloca i32, align 4
  store ptr %0, ptr %4, align 8, !tbaa !113
  store i32 %1, ptr %5, align 4, !tbaa !29
  store i32 %2, ptr %6, align 4, !tbaa !29
  %7 = load ptr, ptr %4, align 8
  %8 = getelementptr inbounds nuw %"class.cv::Mat", ptr %7, i32 0, i32 4
  %9 = load ptr, ptr %8, align 8, !tbaa !190
  %10 = getelementptr inbounds nuw %"class.cv::Mat", ptr %7, i32 0, i32 11
  %11 = getelementptr inbounds nuw %"struct.cv::MatStep", ptr %10, i32 0, i32 0
  %12 = load ptr, ptr %11, align 8, !tbaa !191
  %13 = getelementptr inbounds i64, ptr %12, i64 0
  %14 = load i64, ptr %13, align 8, !tbaa !82
  %15 = load i32, ptr %5, align 4, !tbaa !29
  %16 = sext i32 %15 to i64
  %17 = mul i64 %14, %16
  %18 = getelementptr inbounds nuw i8, ptr %9, i64 %17
  %19 = load i32, ptr %6, align 4, !tbaa !29
  %20 = sext i32 %19 to i64
  %21 = getelementptr inbounds i8, ptr %18, i64 %20
  ret ptr %21
}

; Function Attrs: mustprogress uwtable
define hidden noundef zeroext i1 @_ZN2cv17QRCodeEncoderImpl8writeBitEiib(ptr noundef nonnull align 8 dereferenceable(384) %0, i32 noundef %1, i32 noundef %2, i1 noundef zeroext %3) #2 align 2 {
  %5 = alloca i1, align 1
  %6 = alloca ptr, align 8
  %7 = alloca i32, align 4
  %8 = alloca i32, align 4
  %9 = alloca i8, align 1
  store ptr %0, ptr %6, align 8, !tbaa !20
  store i32 %1, ptr %7, align 4, !tbaa !29
  store i32 %2, ptr %8, align 4, !tbaa !29
  %10 = zext i1 %3 to i8
  store i8 %10, ptr %9, align 1, !tbaa !100
  %11 = load ptr, ptr %6, align 8
  %12 = getelementptr inbounds nuw %"class.cv::QRCodeEncoderImpl", ptr %11, i32 0, i32 12
  %13 = load i32, ptr %8, align 4, !tbaa !29
  %14 = load i32, ptr %7, align 4, !tbaa !29
  %15 = call noundef nonnull align 1 dereferenceable(1) ptr @_ZN2cv3Mat2atIhEERT_ii(ptr noundef nonnull align 8 dereferenceable(96) %12, i32 noundef %13, i32 noundef %14)
  %16 = load i8, ptr %15, align 1, !tbaa !83
  %17 = zext i8 %16 to i32
  %18 = icmp eq i32 %17, 110
  br i1 %18, label %19, label %20

19:                                               ; preds = %4
  store i1 false, ptr %5, align 1
  br label %51

20:                                               ; preds = %4
  %21 = load i8, ptr %9, align 1, !tbaa !100, !range !163, !noundef !164
  %22 = trunc i8 %21 to i1
  br i1 %22, label %32, label %23

23:                                               ; preds = %20
  %24 = getelementptr inbounds nuw %"class.cv::QRCodeEncoderImpl", ptr %11, i32 0, i32 12
  %25 = load i32, ptr %8, align 4, !tbaa !29
  %26 = load i32, ptr %7, align 4, !tbaa !29
  %27 = call noundef nonnull align 1 dereferenceable(1) ptr @_ZN2cv3Mat2atIhEERT_ii(ptr noundef nonnull align 8 dereferenceable(96) %24, i32 noundef %25, i32 noundef %26)
  store i8 0, ptr %27, align 1, !tbaa !83
  %28 = getelementptr inbounds nuw %"class.cv::QRCodeEncoderImpl", ptr %11, i32 0, i32 13
  %29 = load i32, ptr %8, align 4, !tbaa !29
  %30 = load i32, ptr %7, align 4, !tbaa !29
  %31 = call noundef nonnull align 1 dereferenceable(1) ptr @_ZN2cv3Mat2atIhEERT_ii(ptr noundef nonnull align 8 dereferenceable(96) %28, i32 noundef %29, i32 noundef %30)
  store i8 0, ptr %31, align 1, !tbaa !83
  br label %32

32:                                               ; preds = %23, %20
  %33 = load i8, ptr %9, align 1, !tbaa !100, !range !163, !noundef !164
  %34 = trunc i8 %33 to i1
  %35 = zext i1 %34 to i32
  %36 = mul nsw i32 255, %35
  %37 = trunc i32 %36 to i8
  %38 = getelementptr inbounds nuw %"class.cv::QRCodeEncoderImpl", ptr %11, i32 0, i32 12
  %39 = load i32, ptr %8, align 4, !tbaa !29
  %40 = load i32, ptr %7, align 4, !tbaa !29
  %41 = call noundef nonnull align 1 dereferenceable(1) ptr @_ZN2cv3Mat2atIhEERT_ii(ptr noundef nonnull align 8 dereferenceable(96) %38, i32 noundef %39, i32 noundef %40)
  store i8 %37, ptr %41, align 1, !tbaa !83
  %42 = load i8, ptr %9, align 1, !tbaa !100, !range !163, !noundef !164
  %43 = trunc i8 %42 to i1
  %44 = zext i1 %43 to i32
  %45 = mul nsw i32 255, %44
  %46 = trunc i32 %45 to i8
  %47 = getelementptr inbounds nuw %"class.cv::QRCodeEncoderImpl", ptr %11, i32 0, i32 13
  %48 = load i32, ptr %8, align 4, !tbaa !29
  %49 = load i32, ptr %7, align 4, !tbaa !29
  %50 = call noundef nonnull align 1 dereferenceable(1) ptr @_ZN2cv3Mat2atIhEERT_ii(ptr noundef nonnull align 8 dereferenceable(96) %47, i32 noundef %48, i32 noundef %49)
  store i8 %46, ptr %50, align 1, !tbaa !83
  store i1 true, ptr %5, align 1
  br label %51

51:                                               ; preds = %32, %19
  %52 = load i1, ptr %5, align 1
  ret i1 %52
}

; Function Attrs: mustprogress nounwind uwtable
define linkonce_odr hidden noundef i64 @_ZNKSt6vectorIhSaIhEE4sizeEv(ptr noundef nonnull align 8 dereferenceable(24) %0) #0 comdat align 2 {
  %2 = alloca ptr, align 8
  store ptr %0, ptr %2, align 8, !tbaa !72
  %3 = load ptr, ptr %2, align 8
  %4 = getelementptr inbounds nuw %"struct.std::_Vector_base.4", ptr %3, i32 0, i32 0
  %5 = getelementptr inbounds nuw %"struct.std::_Vector_base<unsigned char, std::allocator<unsigned char>>::_Vector_impl_data", ptr %4, i32 0, i32 1
  %6 = load ptr, ptr %5, align 8, !tbaa !79
  %7 = getelementptr inbounds nuw %"struct.std::_Vector_base.4", ptr %3, i32 0, i32 0
  %8 = getelementptr inbounds nuw %"struct.std::_Vector_base<unsigned char, std::allocator<unsigned char>>::_Vector_impl_data", ptr %7, i32 0, i32 0
  %9 = load ptr, ptr %8, align 8, !tbaa !80
  %10 = ptrtoint ptr %6 to i64
  %11 = ptrtoint ptr %9 to i64
  %12 = sub i64 %10, %11
  ret i64 %12
}

; Function Attrs: mustprogress nounwind uwtable
define linkonce_odr hidden noundef nonnull align 1 dereferenceable(1) ptr @_ZNSt6vectorIhSaIhEEixEm(ptr noundef nonnull align 8 dereferenceable(24) %0, i64 noundef %1) #0 comdat align 2 {
  %3 = alloca ptr, align 8
  %4 = alloca i64, align 8
  store ptr %0, ptr %3, align 8, !tbaa !72
  store i64 %1, ptr %4, align 8, !tbaa !82
  %5 = load ptr, ptr %3, align 8
  %6 = getelementptr inbounds nuw %"struct.std::_Vector_base.4", ptr %5, i32 0, i32 0
  %7 = getelementptr inbounds nuw %"struct.std::_Vector_base<unsigned char, std::allocator<unsigned char>>::_Vector_impl_data", ptr %6, i32 0, i32 0
  %8 = load ptr, ptr %7, align 8, !tbaa !80
  %9 = load i64, ptr %4, align 8, !tbaa !82
  %10 = getelementptr inbounds nuw i8, ptr %8, i64 %9
  ret ptr %10
}

; Function Attrs: mustprogress uwtable
define hidden void @_ZN2cv17QRCodeEncoderImpl9writeDataEv(ptr noundef nonnull align 8 dereferenceable(384) %0) #2 align 2 {
  %2 = alloca ptr, align 8
  %3 = alloca i32, align 4
  %4 = alloca i32, align 4
  %5 = alloca i32, align 4
  %6 = alloca i32, align 4
  %7 = alloca i32, align 4
  %8 = alloca i32, align 4
  %9 = alloca i8, align 1
  %10 = alloca i32, align 4
  %11 = alloca i32, align 4
  %12 = alloca i8, align 1
  %13 = alloca i8, align 1
  store ptr %0, ptr %2, align 8, !tbaa !20
  %14 = load ptr, ptr %2, align 8
  call void @llvm.lifetime.start.p0(i64 4, ptr %3) #21
  %15 = getelementptr inbounds nuw %"class.cv::QRCodeEncoderImpl", ptr %14, i32 0, i32 6
  %16 = load i32, ptr %15, align 8, !tbaa !89
  %17 = sub nsw i32 %16, 1
  store i32 %17, ptr %3, align 4, !tbaa !29
  call void @llvm.lifetime.start.p0(i64 4, ptr %4) #21
  %18 = getelementptr inbounds nuw %"class.cv::QRCodeEncoderImpl", ptr %14, i32 0, i32 6
  %19 = load i32, ptr %18, align 8, !tbaa !89
  %20 = sub nsw i32 %19, 1
  store i32 %20, ptr %4, align 4, !tbaa !29
  call void @llvm.lifetime.start.p0(i64 4, ptr %5) #21
  store i32 -1, ptr %5, align 4, !tbaa !29
  call void @llvm.lifetime.start.p0(i64 4, ptr %6) #21
  store i32 0, ptr %6, align 4, !tbaa !29
  call void @llvm.lifetime.start.p0(i64 4, ptr %7) #21
  %21 = getelementptr inbounds nuw %"class.cv::QRCodeEncoderImpl", ptr %14, i32 0, i32 11
  %22 = call noundef nonnull align 1 dereferenceable(1) ptr @_ZNSt6vectorIhSaIhEEixEm(ptr noundef nonnull align 8 dereferenceable(24) %21, i64 noundef 0) #21
  %23 = load i8, ptr %22, align 1, !tbaa !83
  %24 = zext i8 %23 to i32
  store i32 %24, ptr %7, align 4, !tbaa !29
  call void @llvm.lifetime.start.p0(i64 4, ptr %8) #21
  %25 = getelementptr inbounds nuw %"class.cv::QRCodeEncoderImpl", ptr %14, i32 0, i32 11
  %26 = call noundef i64 @_ZNKSt6vectorIhSaIhEE4sizeEv(ptr noundef nonnull align 8 dereferenceable(24) %25) #21
  %27 = trunc i64 %26 to i32
  %28 = mul nsw i32 %27, 8
  store i32 %28, ptr %8, align 4, !tbaa !29
  call void @llvm.lifetime.start.p0(i64 1, ptr %9) #21
  store i8 0, ptr %9, align 1, !tbaa !100
  br label %29

29:                                               ; preds = %112, %1
  %30 = load i32, ptr %4, align 4, !tbaa !29
  %31 = icmp sgt i32 %30, 0
  br i1 %31, label %32, label %113

32:                                               ; preds = %29
  %33 = load i32, ptr %4, align 4, !tbaa !29
  %34 = icmp eq i32 %33, 6
  br i1 %34, label %35, label %38

35:                                               ; preds = %32
  %36 = load i32, ptr %4, align 4, !tbaa !29
  %37 = add nsw i32 %36, -1
  store i32 %37, ptr %4, align 4, !tbaa !29
  br label %38

38:                                               ; preds = %35, %32
  call void @llvm.lifetime.start.p0(i64 4, ptr %10) #21
  store i32 0, ptr %10, align 4, !tbaa !29
  br label %39

39:                                               ; preds = %85, %38
  %40 = load i32, ptr %10, align 4, !tbaa !29
  %41 = icmp sle i32 %40, 1
  br i1 %41, label %43, label %42

42:                                               ; preds = %39
  store i32 4, ptr %11, align 4
  br label %88

43:                                               ; preds = %39
  call void @llvm.lifetime.start.p0(i64 1, ptr %12) #21
  %44 = load i32, ptr %7, align 4, !tbaa !29
  %45 = load i32, ptr %6, align 4, !tbaa !29
  %46 = srem i32 %45, 8
  %47 = ashr i32 128, %46
  %48 = and i32 %44, %47
  %49 = icmp eq i32 %48, 0
  %50 = zext i1 %49 to i8
  store i8 %50, ptr %12, align 1, !tbaa !100
  call void @llvm.lifetime.start.p0(i64 1, ptr %13) #21
  %51 = load i32, ptr %4, align 4, !tbaa !29
  %52 = load i32, ptr %10, align 4, !tbaa !29
  %53 = sub nsw i32 %51, %52
  %54 = load i32, ptr %3, align 4, !tbaa !29
  %55 = load i8, ptr %12, align 1, !tbaa !100, !range !163, !noundef !164
  %56 = trunc i8 %55 to i1
  %57 = call noundef zeroext i1 @_ZN2cv17QRCodeEncoderImpl8writeBitEiib(ptr noundef nonnull align 8 dereferenceable(384) %14, i32 noundef %53, i32 noundef %54, i1 noundef zeroext %56)
  %58 = zext i1 %57 to i8
  store i8 %58, ptr %13, align 1, !tbaa !100
  %59 = load i8, ptr %13, align 1, !tbaa !100, !range !163, !noundef !164
  %60 = trunc i8 %59 to i1
  br i1 %60, label %62, label %61

61:                                               ; preds = %43
  store i32 6, ptr %11, align 4
  br label %82

62:                                               ; preds = %43
  %63 = load i32, ptr %6, align 4, !tbaa !29
  %64 = add nsw i32 %63, 1
  store i32 %64, ptr %6, align 4, !tbaa !29
  %65 = load i32, ptr %6, align 4, !tbaa !29
  %66 = load i32, ptr %8, align 4, !tbaa !29
  %67 = icmp eq i32 %65, %66
  br i1 %67, label %68, label %69

68:                                               ; preds = %62
  store i8 1, ptr %9, align 1, !tbaa !100
  store i32 4, ptr %11, align 4
  br label %82

69:                                               ; preds = %62
  %70 = load i32, ptr %6, align 4, !tbaa !29
  %71 = srem i32 %70, 8
  %72 = icmp eq i32 %71, 0
  br i1 %72, label %73, label %81

73:                                               ; preds = %69
  %74 = getelementptr inbounds nuw %"class.cv::QRCodeEncoderImpl", ptr %14, i32 0, i32 11
  %75 = load i32, ptr %6, align 4, !tbaa !29
  %76 = sdiv i32 %75, 8
  %77 = sext i32 %76 to i64
  %78 = call noundef nonnull align 1 dereferenceable(1) ptr @_ZNSt6vectorIhSaIhEEixEm(ptr noundef nonnull align 8 dereferenceable(24) %74, i64 noundef %77) #21
  %79 = load i8, ptr %78, align 1, !tbaa !83
  %80 = zext i8 %79 to i32
  store i32 %80, ptr %7, align 4, !tbaa !29
  br label %81

81:                                               ; preds = %73, %69
  store i32 0, ptr %11, align 4
  br label %82

82:                                               ; preds = %81, %68, %61
  call void @llvm.lifetime.end.p0(i64 1, ptr %13) #21
  call void @llvm.lifetime.end.p0(i64 1, ptr %12) #21
  %83 = load i32, ptr %11, align 4
  switch i32 %83, label %88 [
    i32 0, label %84
    i32 6, label %85
  ]

84:                                               ; preds = %82
  br label %85

85:                                               ; preds = %84, %82
  %86 = load i32, ptr %10, align 4, !tbaa !29
  %87 = add nsw i32 %86, 1
  store i32 %87, ptr %10, align 4, !tbaa !29
  br label %39, !llvm.loop !236

88:                                               ; preds = %82, %42
  call void @llvm.lifetime.end.p0(i64 4, ptr %10) #21
  br label %89

89:                                               ; preds = %88
  %90 = load i8, ptr %9, align 1, !tbaa !100, !range !163, !noundef !164
  %91 = trunc i8 %90 to i1
  br i1 %91, label %92, label %93

92:                                               ; preds = %89
  br label %113

93:                                               ; preds = %89
  %94 = load i32, ptr %5, align 4, !tbaa !29
  %95 = load i32, ptr %3, align 4, !tbaa !29
  %96 = add nsw i32 %95, %94
  store i32 %96, ptr %3, align 4, !tbaa !29
  %97 = load i32, ptr %3, align 4, !tbaa !29
  %98 = icmp slt i32 %97, 0
  br i1 %98, label %104, label %99

99:                                               ; preds = %93
  %100 = load i32, ptr %3, align 4, !tbaa !29
  %101 = getelementptr inbounds nuw %"class.cv::QRCodeEncoderImpl", ptr %14, i32 0, i32 6
  %102 = load i32, ptr %101, align 8, !tbaa !89
  %103 = icmp sge i32 %100, %102
  br i1 %103, label %104, label %112

104:                                              ; preds = %99, %93
  %105 = load i32, ptr %5, align 4, !tbaa !29
  %106 = sub nsw i32 0, %105
  store i32 %106, ptr %5, align 4, !tbaa !29
  %107 = load i32, ptr %4, align 4, !tbaa !29
  %108 = sub nsw i32 %107, 2
  store i32 %108, ptr %4, align 4, !tbaa !29
  %109 = load i32, ptr %5, align 4, !tbaa !29
  %110 = load i32, ptr %3, align 4, !tbaa !29
  %111 = add nsw i32 %110, %109
  store i32 %111, ptr %3, align 4, !tbaa !29
  br label %112

112:                                              ; preds = %104, %99
  br label %29, !llvm.loop !237

113:                                              ; preds = %92, %29
  call void @llvm.lifetime.end.p0(i64 1, ptr %9) #21
  call void @llvm.lifetime.end.p0(i64 4, ptr %8) #21
  call void @llvm.lifetime.end.p0(i64 4, ptr %7) #21
  call void @llvm.lifetime.end.p0(i64 4, ptr %6) #21
  call void @llvm.lifetime.end.p0(i64 4, ptr %5) #21
  call void @llvm.lifetime.end.p0(i64 4, ptr %4) #21
  call void @llvm.lifetime.end.p0(i64 4, ptr %3) #21
  ret void
}