; Function Attrs: mustprogress nofree norecurse nosync nounwind memory(readwrite, inaccessiblemem: none) uwtable
define hidden void @_ZN2cv17QRCodeEncoderImpl9writeDataEv(ptr noundef nonnull readonly align 8 captures(none) dereferenceable(384) %0) local_unnamed_addr #11 align 2 {
  %2 = getelementptr inbounds nuw i8, ptr %0, i64 40
  %3 = load i32, ptr %2, align 8, !tbaa !75
  %4 = getelementptr inbounds nuw i8, ptr %0, i64 120
  %5 = load ptr, ptr %4, align 8, !tbaa !60
  %6 = getelementptr inbounds nuw i8, ptr %0, i64 128
  %7 = load ptr, ptr %6, align 8, !tbaa !59
  %8 = ptrtoint ptr %7 to i64
  %9 = ptrtoint ptr %5 to i64
  %10 = sub i64 %8, %9
  %11 = trunc i64 %10 to i32
  %12 = shl nsw i32 %11, 3
  %13 = icmp sgt i32 %3, 1
  br i1 %13, label %.lr.ph, label %_ZN2cv17QRCodeEncoderImpl8writeBitEiib.exit.thread55

.lr.ph:                                           ; preds = %1
  %14 = add nsw i32 %3, -1
  %15 = load i8, ptr %5, align 1, !tbaa !57
  %16 = zext i8 %15 to i32
  %17 = getelementptr inbounds nuw i8, ptr %0, i64 160
  %18 = getelementptr inbounds nuw i8, ptr %0, i64 216
  %19 = getelementptr inbounds nuw i8, ptr %0, i64 256
  %20 = getelementptr inbounds nuw i8, ptr %0, i64 312
  br label %21

21:                                               ; preds = %.lr.ph, %_ZN2cv17QRCodeEncoderImpl8writeBitEiib.exit
  %.070 = phi i32 [ %14, %.lr.ph ], [ %.1, %_ZN2cv17QRCodeEncoderImpl8writeBitEiib.exit ]
  %.02769 = phi i32 [ %14, %.lr.ph ], [ %.2, %_ZN2cv17QRCodeEncoderImpl8writeBitEiib.exit ]
  %.03468 = phi i32 [ -1, %.lr.ph ], [ %.135, %_ZN2cv17QRCodeEncoderImpl8writeBitEiib.exit ]
  %.03667 = phi i32 [ %16, %.lr.ph ], [ %.339.ph, %_ZN2cv17QRCodeEncoderImpl8writeBitEiib.exit ]
  %.04066 = phi i32 [ 0, %.lr.ph ], [ %.343.ph, %_ZN2cv17QRCodeEncoderImpl8writeBitEiib.exit ]
  %22 = icmp eq i32 %.02769, 6
  %spec.select = select i1 %22, i32 5, i32 %.02769
  %23 = sext i32 %.070 to i64
  %24 = zext nneg i32 %spec.select to i64
  br label %25

25:                                               ; preds = %21, %70
  %26 = phi i1 [ true, %21 ], [ false, %70 ]
  %indvars.iv = phi i64 [ 0, %21 ], [ 1, %70 ]
  %.13764 = phi i32 [ %.03667, %21 ], [ %.339.ph, %70 ]
  %.14163 = phi i32 [ %.04066, %21 ], [ %.343.ph, %70 ]
  %27 = sub nuw nsw i64 %24, %indvars.iv
  %28 = load ptr, ptr %17, align 8, !tbaa !166
  %29 = load ptr, ptr %18, align 8, !tbaa !167
  %30 = load i64, ptr %29, align 8, !tbaa !72
  %31 = mul i64 %30, %23
  %32 = getelementptr inbounds nuw i8, ptr %28, i64 %31
  %33 = getelementptr inbounds nuw i8, ptr %32, i64 %27
  %34 = load i8, ptr %33, align 1, !tbaa !57
  %.not59 = icmp eq i8 %34, 110
  br i1 %.not59, label %70, label %35

35:                                               ; preds = %25
  %36 = and i32 %.14163, 7
  %37 = lshr exact i32 128, %36
  %38 = and i32 %37, %.13764
  %39 = icmp eq i32 %38, 0
  br i1 %39, label %47, label %40

40:                                               ; preds = %35
  store i8 0, ptr %33, align 1, !tbaa !57
  %41 = load ptr, ptr %19, align 8, !tbaa !166
  %42 = load ptr, ptr %20, align 8, !tbaa !167
  %43 = load i64, ptr %42, align 8, !tbaa !72
  %44 = mul i64 %43, %23
  %45 = getelementptr inbounds nuw i8, ptr %41, i64 %44
  %46 = getelementptr inbounds nuw i8, ptr %45, i64 %27
  store i8 0, ptr %46, align 1, !tbaa !57
  %.pre.i = load ptr, ptr %17, align 8, !tbaa !166
  %.pre14.i = load ptr, ptr %18, align 8, !tbaa !167
  %.pre15.i = load i64, ptr %.pre14.i, align 8, !tbaa !72
  %.pre16.i = mul i64 %.pre15.i, %23
  br label %47

47:                                               ; preds = %35, %40
  %.pre-phi.i = phi i64 [ %.pre16.i, %40 ], [ %31, %35 ]
  %48 = phi ptr [ %.pre.i, %40 ], [ %28, %35 ]
  %49 = phi i8 [ 0, %40 ], [ -1, %35 ]
  %50 = getelementptr inbounds nuw i8, ptr %48, i64 %.pre-phi.i
  %51 = getelementptr inbounds nuw i8, ptr %50, i64 %27
  store i8 %49, ptr %51, align 1, !tbaa !57
  %52 = load ptr, ptr %19, align 8, !tbaa !166
  %53 = load ptr, ptr %20, align 8, !tbaa !167
  %54 = load i64, ptr %53, align 8, !tbaa !72
  %55 = mul i64 %54, %23
  %56 = getelementptr inbounds nuw i8, ptr %52, i64 %55
  %57 = getelementptr inbounds nuw i8, ptr %56, i64 %27
  store i8 %49, ptr %57, align 1, !tbaa !57
  %58 = add nsw i32 %.14163, 1
  %59 = icmp eq i32 %58, %12
  br i1 %59, label %_ZN2cv17QRCodeEncoderImpl8writeBitEiib.exit.thread55, label %60

60:                                               ; preds = %47
  %61 = and i32 %58, 7
  %62 = icmp eq i32 %61, 0
  br i1 %62, label %63, label %70

63:                                               ; preds = %60
  %64 = ashr exact i32 %58, 3
  %65 = sext i32 %64 to i64
  %66 = load ptr, ptr %4, align 8, !tbaa !60
  %67 = getelementptr inbounds nuw i8, ptr %66, i64 %65
  %68 = load i8, ptr %67, align 1, !tbaa !57
  %69 = zext i8 %68 to i32
  br label %70

70:                                               ; preds = %63, %60, %25
  %.343.ph = phi i32 [ %.14163, %25 ], [ %58, %60 ], [ %58, %63 ]
  %.339.ph = phi i32 [ %.13764, %25 ], [ %.13764, %60 ], [ %69, %63 ]
  br i1 %26, label %25, label %_ZN2cv17QRCodeEncoderImpl8writeBitEiib.exit, !llvm.loop !189

_ZN2cv17QRCodeEncoderImpl8writeBitEiib.exit:      ; preds = %70
  %71 = add nsw i32 %.070, %.03468
  %72 = icmp sgt i32 %71, -1
  %73 = load i32, ptr %2, align 8
  %.not = icmp slt i32 %71, %73
  %or.cond = select i1 %72, i1 %.not, i1 false
  %74 = sub nsw i32 0, %.03468
  %75 = add nsw i32 %spec.select, -2
  %.135 = select i1 %or.cond, i32 %.03468, i32 %74
  %.2 = select i1 %or.cond, i32 %spec.select, i32 %75
  %.1 = select i1 %or.cond, i32 %71, i32 %.070
  %76 = icmp sgt i32 %.2, 0
  br i1 %76, label %21, label %_ZN2cv17QRCodeEncoderImpl8writeBitEiib.exit.thread55, !llvm.loop !190

_ZN2cv17QRCodeEncoderImpl8writeBitEiib.exit.thread55: ; preds = %_ZN2cv17QRCodeEncoderImpl8writeBitEiib.exit, %47, %1
  ret void
}